Certificate:
    Data:
        Version: 3 (0x2)
        Serial Number: 2 (0x2)
    Signature Algorithm: sha256WithRSAEncryption
        Issuer: C=CN, ST=GuangDong, L=ShenZhen, O=gupiaoxianji.com, OU=Tech, CN=debug.gupiaoxianji.com/emailAddress=378077287@qq.com
        Validity
            Not Before: Sep  9 08:10:37 2017 GMT
            Not After : Sep  9 08:10:37 2018 GMT
        Subject: C=CN, ST=GuangDong, O=gupiaoxianji.com, OU=test, CN=test.gupiaoxianji.com/emailAddress=bb@bb.com
        Subject Public Key Info:
            Public Key Algorithm: rsaEncryption
                Public-Key: (1024 bit)
                Modulus:
                    00:ca:82:db:e3:dc:c3:23:cf:a8:2d:52:9d:86:c6:
                    11:df:dc:64:88:21:02:4d:76:74:f0:09:07:b8:a0:
                    d8:d7:ed:d8:e2:80:b9:a7:50:a6:12:ee:f3:e5:6e:
                    5d:0f:1c:40:a6:f2:51:5b:9f:9d:a7:35:76:f5:15:
                    63:ed:2b:58:2c:a0:81:1f:05:27:be:e4:7d:ee:e4:
                    72:81:29:66:41:3f:85:b5:99:36:7b:d9:94:8f:9a:
                    4e:c3:24:3b:e0:af:72:75:a1:7d:a7:45:67:5d:f4:
                    c5:8d:d1:3c:e3:17:c0:87:cc:75:e8:89:ff:4c:80:
                    33:db:f7:93:56:7f:31:b0:bb
                Exponent: 65537 (0x10001)
        X509v3 extensions:
            X509v3 Basic Constraints: 
                CA:FALSE
            Netscape Comment: 
                OpenSSL Generated Certificate
            X509v3 Subject Key Identifier: 
                2B:5D:26:20:DA:2C:47:84:AD:01:F2:3A:84:CA:79:B8:4C:90:16:83
            X509v3 Authority Key Identifier: 
                keyid:01:49:3D:3C:66:61:2D:64:DF:C9:6F:AE:1B:66:92:F0:3B:BF:26:14

    Signature Algorithm: sha256WithRSAEncryption
         0f:16:7e:14:9a:79:74:4f:16:ac:c9:2b:24:3f:08:87:11:86:
         45:5e:18:fe:22:f1:1a:2b:08:5e:00:f1:a8:5a:6e:99:38:20:
         41:c9:9e:85:c8:cb:58:e1:1b:50:55:4d:26:97:d6:9d:b5:40:
         bb:8a:db:8a:36:9a:d6:00:f7:81:f5:c5:00:93:87:84:a9:f3:
         4d:1c:e5:a1:00:a5:f8:d7:3a:1e:95:40:d8:c7:39:ec:44:0e:
         6e:d2:ee:93:bb:e0:f0:8f:9a:d8:6a:82:33:9b:9b:1c:0e:30:
         cb:0c:ea:56:d0:52:96:8a:29:9a:37:05:ec:f3:ec:80:a9:42:
         1e:3c:ca:23:ba:88:fa:69:81:81:fe:42:be:41:58:37:5c:43:
         02:7e:ef:4a:56:40:7d:2a:8d:ea:ef:a2:ca:13:8f:99:1f:cd:
         7a:f0:82:0a:20:9c:bf:5d:45:10:c5:13:5d:2c:a5:ef:77:fb:
         df:77:b2:9a:a3:df:aa:19:60:a7:f3:fc:17:51:ea:55:d6:38:
         33:21:b4:2e:39:54:50:35:b2:83:6a:af:f5:d9:d2:05:16:1c:
         77:d3:cb:ea:e9:2d:c2:c6:0c:a0:39:b2:82:d2:78:34:b7:d2:
         f4:ef:54:17:0c:8a:60:0e:1d:c8:d0:49:e1:6b:72:ac:0b:0e:
         55:b0:87:56
-----BEGIN CERTIFICATE-----
MIIDmTCCAoGgAwIBAgIBAjANBgkqhkiG9w0BAQsFADCBoDELMAkGA1UEBhMCQ04x
EjAQBgNVBAgMCUd1YW5nRG9uZzERMA8GA1UEBwwIU2hlblpoZW4xGTAXBgNVBAoM
EGd1cGlhb3hpYW5qaS5jb20xDTALBgNVBAsMBFRlY2gxHzAdBgNVBAMMFmRlYnVn
Lmd1cGlhb3hpYW5qaS5jb20xHzAdBgkqhkiG9w0BCQEWEDM3ODA3NzI4N0BxcS5j
b20wHhcNMTcwOTA5MDgxMDM3WhcNMTgwOTA5MDgxMDM3WjCBhTELMAkGA1UEBhMC
Q04xEjAQBgNVBAgMCUd1YW5nRG9uZzEZMBcGA1UECgwQZ3VwaWFveGlhbmppLmNv
bTENMAsGA1UECwwEdGVzdDEeMBwGA1UEAwwVdGVzdC5ndXBpYW94aWFuamkuY29t
MRgwFgYJKoZIhvcNAQkBFgliYkBiYi5jb20wgZ8wDQYJKoZIhvcNAQEBBQADgY0A
MIGJAoGBAMqC2+PcwyPPqC1SnYbGEd/cZIghAk12dPAJB7ig2Nft2OKAuadQphLu
8+VuXQ8cQKbyUVufnac1dvUVY+0rWCyggR8FJ77kfe7kcoEpZkE/hbWZNnvZlI+a
TsMkO+CvcnWhfadFZ130xY3RPOMXwIfMdeiJ/0yAM9v3k1Z/MbC7AgMBAAGjezB5
MAkGA1UdEwQCMAAwLAYJYIZIAYb4QgENBB8WHU9wZW5TU0wgR2VuZXJhdGVkIENl
cnRpZmljYXRlMB0GA1UdDgQWBBQrXSYg2ixHhK0B8jqEynm4TJAWgzAfBgNVHSME
GDAWgBQBST08ZmEtZN/Jb64bZpLwO78mFDANBgkqhkiG9w0BAQsFAAOCAQEADxZ+
FJp5dE8WrMkrJD8IhxGGRV4Y/iLxGisIXgDxqFpumTggQcmehcjLWOEbUFVNJpfW
nbVAu4rbijaa1gD3gfXFAJOHhKnzTRzloQCl+Nc6HpVA2Mc57EQObtLuk7vg8I+a
2GqCM5ubHA4wywzqVtBSloopmjcF7PPsgKlCHjzKI7qI+mmBgf5CvkFYN1xDAn7v
SlZAfSqN6u+iyhOPmR/NevCCCiCcv11FEMUTXSyl73f733eymqPfqhlgp/P8F1Hq
VdY4MyG0LjlUUDWyg2qv9dnSBRYcd9PL6uktwsYMoDmygtJ4NLfS9O9UFwyKYA4d
yNBJ4WtyrAsOVbCHVg==
-----END CERTIFICATE-----
